; Function Attrs: nounwind uwtable
define dso_local void @installClientWriteHandler(ptr noundef %0) local_unnamed_addr #0 {
  %2 = load i32, ptr getelementptr inbounds nuw (i8, ptr @server, i64 6520), align 8, !tbaa !115
  %3 = icmp eq i32 %2, 1
  %4 = load i32, ptr getelementptr inbounds nuw (i8, ptr @server, i64 6524), align 4
  %5 = icmp eq i32 %4, 1
  %or.cond = select i1 %3, i1 %5, i1 false
  %spec.store.select = zext i1 %or.cond to i32
  %6 = getelementptr inbounds nuw i8, ptr %0, i64 16
  %7 = load ptr, ptr %6, align 8, !tbaa !75
  %8 = load ptr, ptr %7, align 8, !tbaa !66
  %9 = getelementptr inbounds nuw i8, ptr %8, i64 152
  %10 = load ptr, ptr %9, align 8, !tbaa !116
  %11 = tail call i32 %10(ptr noundef nonnull %7, ptr noundef nonnull @sendReplyToClient, i32 noundef range(i32 0, 2) %spec.store.select) #26
  %12 = icmp eq i32 %11, -1
  br i1 %12, label %13, label %14

13:                                               ; preds = %1
  tail call void @freeClientAsync(ptr noundef nonnull %0)
  br label %14

14:                                               ; preds = %13, %1
  ret void
}